(dp0
I216557537
(i__main__
Pair
p1
(dp2
S'a'
p3
I-1
sS'b'
p4
I-1
sbsI15141380
(i__main__
Pair
p5
(dp6
g3
I-1
sg4
I-1
sbsI8379173
(i__main__
Pair
p7
(dp8
g3
I-1
sg4
I-1
sbsI166447709
(i__main__
Pair
p9
(dp10
g3
I-1
sg4
I-1
sbsI4647150
(i__main__
Pair
p11
(dp12
g3
I-1
sg4
I-1
sbsI139942223
(i__main__
Pair
p13
(dp14
g3
I-1
sg4
I-1
sbsI188186801
(i__main__
Pair
p15
(dp16
g3
I-1
sg4
I-1
sbsI170303987
(i__main__
Pair
p17
(dp18
g3
I-1
sg4
I-1
sbsI234528548
(i__main__
Pair
p19
(dp20
g3
I-1
sg4
I-1
sbsI199854105
(i__main__
Pair
p21
(dp22
g3
I-1
sg4
I-1
sbsI14164957
(i__main__
Pair
p23
(dp24
g3
I-1
sg4
I-1
sbsI265841118
(i__main__
Pair
p25
(dp26
g3
I-1
sg4
I-1
sbs.