(dp0
I216557537
c__builtin__
set
p1
((lp2
I1
aI2
aI3
aI4
aI6
aI7
atp3
Rp4
sI15141380
g1
((lp5
I0
aI1
aI2
aI3
aI4
aI5
aI6
aI7
aI8
aI9
aI10
aI11
aI12
aI13
atp6
Rp7
sI139942223
g1
((lp8
I0
aI1
aI2
aI3
aI4
aI5
aI6
aI7
aI8
aI9
aI10
aI11
aI12
aI13
atp9
Rp10
sI188186801
g1
((lp11
I0
aI1
aI2
aI3
aI4
aI5
aI6
aI7
aI8
aI9
aI10
aI11
aI12
aI13
atp12
Rp13
sI170303987
g1
((lp14
I0
aI1
aI2
aI3
aI4
aI5
aI6
aI7
aI8
aI9
aI10
aI11
aI12
aI13
atp15
Rp16
sI199854105
g1
((lp17
I0
aI1
aI2
aI3
aI4
aI5
aI6
atp18
Rp19
sI14164957
g1
((lp20
I0
aI1
aI2
aI3
aI4
aI5
aI6
atp21
Rp22
sI166447709
g1
((lp23
tp24
Rp25
s.